target datalayout = "e-m:e-p270:32:32-p271:32:32-p272:64:64-i64:64-i128:128-f80:128-n8:16:32:64-S128"
target triple = "x86_64-pc-linux-gnu"

%"struct.std::atomic" = type { %"struct.std::__atomic_base" }
%"struct.std::__atomic_base" = type { i64 }
%"class.google::protobuf::internal::LogMessage" = type { i32, ptr, i32, %"class.std::__cxx11::basic_string" }
%"class.std::__cxx11::basic_string" = type { %"struct.std::__cxx11::basic_string<char>::_Alloc_hider", i64, %union.anon }
%"struct.std::__cxx11::basic_string<char>::_Alloc_hider" = type { ptr }
%union.anon = type { i64, [8 x i8] }
%"class.google::protobuf::internal::LogFinisher" = type { i8 }
%"class.google::protobuf::internal::ArenaImpl" = type { %"struct.std::atomic.0", %"struct.std::atomic.0", %"struct.std::atomic", i64, ptr }
%"struct.std::atomic.0" = type { %"struct.std::__atomic_base.1" }
%"struct.std::__atomic_base.1" = type { ptr }
%"struct.google::protobuf::internal::ArenaImpl::Options" = type { i64, i64, ptr, ptr, ptr }
%"struct.std::pair" = type { ptr, i64 }

@.str = private unnamed_addr constant [35 x i8] c"third_party/protobuf-lite/arena.cc\00", align 1
@.str.3 = private unnamed_addr constant [87 x i8] c"CHECK failed: (min_bytes) <= (std::numeric_limits<size_t>::max() - kBlockHeaderSize): \00", align 1

; Function Attrs: mustprogress nounwind uwtable
define linkonce_odr void @_ZNSt4pairIPvmEC2IRS0_RmTnNSt9enable_ifIXaaclsr5_PCCPE22_MoveConstructiblePairIT_T0_EEclsr5_PCCPE30_ImplicitlyMoveConvertiblePairIS6_S7_EEEbE4typeELb1EEEOS6_OS7_(ptr noundef nonnull align 8 dereferenceable(16) %0, ptr noundef nonnull align 8 dereferenceable(8) %1, ptr noundef nonnull align 8 dereferenceable(8) %2) unnamed_addr #5 comdat align 2 {
  %4 = alloca ptr, align 8
  %5 = alloca ptr, align 8
  %6 = alloca ptr, align 8
  store ptr %0, ptr %4, align 8, !tbaa !97
  store ptr %1, ptr %5, align 8, !tbaa !99
  store ptr %2, ptr %6, align 8, !tbaa !49
  %7 = load ptr, ptr %4, align 8
  %8 = getelementptr inbounds nuw %"struct.std::pair", ptr %7, i32 0, i32 0
  %9 = load ptr, ptr %5, align 8, !tbaa !99
  %10 = load ptr, ptr %9, align 8, !tbaa !3
  store ptr %10, ptr %8, align 8, !tbaa !100
  %11 = getelementptr inbounds nuw %"struct.std::pair", ptr %7, i32 0, i32 1
  %12 = load ptr, ptr %6, align 8, !tbaa !49
  %13 = load i64, ptr %12, align 8, !tbaa !7
  store i64 %13, ptr %11, align 8, !tbaa !102
  ret void
}

; Function Attrs: alwaysinline mustprogress nounwind uwtable
define linkonce_odr noundef i64 @_ZNSt13__atomic_baseImE9fetch_addEmSt12memory_order(ptr noundef nonnull align 8 dereferenceable(8) %0, i64 noundef %1, i32 noundef %2) #11 comdat align 2 {
  %4 = alloca ptr, align 8
  %5 = alloca i64, align 8
  %6 = alloca i32, align 4
  %7 = alloca i64, align 8
  %8 = alloca i64, align 8
  store ptr %0, ptr %4, align 8, !tbaa !63
  store i64 %1, ptr %5, align 8, !tbaa !7
  store i32 %2, ptr %6, align 4, !tbaa !65
  %9 = load ptr, ptr %4, align 8
  %10 = getelementptr inbounds nuw %"struct.std::__atomic_base", ptr %9, i32 0, i32 0
  %11 = load i32, ptr %6, align 4, !tbaa !65
  %12 = load i64, ptr %5, align 8, !tbaa !7
  store i64 %12, ptr %7, align 8, !tbaa !7
  switch i32 %11, label %13 [
    i32 1, label %16
    i32 2, label %16
    i32 3, label %19
    i32 4, label %22
    i32 5, label %25
  ]

13:                                               ; preds = %3
  %14 = load i64, ptr %7, align 8
  %15 = atomicrmw add ptr %10, i64 %14 monotonic, align 8
  store i64 %15, ptr %8, align 8
  br label %28

16:                                               ; preds = %3, %3
  %17 = load i64, ptr %7, align 8
  %18 = atomicrmw add ptr %10, i64 %17 acquire, align 8
  store i64 %18, ptr %8, align 8
  br label %28

19:                                               ; preds = %3
  %20 = load i64, ptr %7, align 8
  %21 = atomicrmw add ptr %10, i64 %20 release, align 8
  store i64 %21, ptr %8, align 8
  br label %28

22:                                               ; preds = %3
  %23 = load i64, ptr %7, align 8
  %24 = atomicrmw add ptr %10, i64 %23 acq_rel, align 8
  store i64 %24, ptr %8, align 8
  br label %28

25:                                               ; preds = %3
  %26 = load i64, ptr %7, align 8
  %27 = atomicrmw add ptr %10, i64 %26 seq_cst, align 8
  store i64 %27, ptr %8, align 8
  br label %28

28:                                               ; preds = %25, %22, %19, %16, %13
  %29 = load i64, ptr %8, align 8, !tbaa !7
  ret i64 %29
}

; Function Attrs: inlinehint mustprogress nounwind uwtable
define linkonce_odr noundef nonnull align 8 dereferenceable(8) ptr @_ZSt3maxImERKT_S2_S2_(ptr noundef nonnull align 8 dereferenceable(8) %0, ptr noundef nonnull align 8 dereferenceable(8) %1) #9 comdat {
  %3 = alloca ptr, align 8
  %4 = alloca ptr, align 8
  %5 = alloca ptr, align 8
  store ptr %0, ptr %4, align 8, !tbaa !49
  store ptr %1, ptr %5, align 8, !tbaa !49
  %6 = load ptr, ptr %4, align 8, !tbaa !49
  %7 = load i64, ptr %6, align 8, !tbaa !7
  %8 = load ptr, ptr %5, align 8, !tbaa !49
  %9 = load i64, ptr %8, align 8, !tbaa !7
  %10 = icmp ult i64 %7, %9
  br i1 %10, label %11, label %13

11:                                               ; preds = %2
  %12 = load ptr, ptr %5, align 8, !tbaa !49
  store ptr %12, ptr %3, align 8
  br label %15

13:                                               ; preds = %2
  %14 = load ptr, ptr %4, align 8, !tbaa !49
  store ptr %14, ptr %3, align 8
  br label %15

15:                                               ; preds = %13, %11
  %16 = load ptr, ptr %3, align 8
  ret ptr %16
}

; Function Attrs: mustprogress nounwind uwtable
define linkonce_odr noundef i64 @_ZNSt14numeric_limitsImE3maxEv() #5 comdat align 2 {
  ret i64 -1
}

; Function Attrs: inlinehint mustprogress nounwind uwtable
define linkonce_odr noundef nonnull align 8 dereferenceable(8) ptr @_ZSt3minImERKT_S2_S2_(ptr noundef nonnull align 8 dereferenceable(8) %0, ptr noundef nonnull align 8 dereferenceable(8) %1) #9 comdat {
  %3 = alloca ptr, align 8
  %4 = alloca ptr, align 8
  %5 = alloca ptr, align 8
  store ptr %0, ptr %4, align 8, !tbaa !49
  store ptr %1, ptr %5, align 8, !tbaa !49
  %6 = load ptr, ptr %5, align 8, !tbaa !49
  %7 = load i64, ptr %6, align 8, !tbaa !7
  %8 = load ptr, ptr %4, align 8, !tbaa !49
  %9 = load i64, ptr %8, align 8, !tbaa !7
  %10 = icmp ult i64 %7, %9
  br i1 %10, label %11, label %13

11:                                               ; preds = %2
  %12 = load ptr, ptr %5, align 8, !tbaa !49
  store ptr %12, ptr %3, align 8
  br label %15

13:                                               ; preds = %2
  %14 = load ptr, ptr %4, align 8, !tbaa !49
  store ptr %14, ptr %3, align 8
  br label %15

15:                                               ; preds = %13, %11
  %16 = load ptr, ptr %3, align 8
  ret ptr %16
}

; Function Attrs: mustprogress uwtable
define { ptr, i64 } @_ZN6google8protobuf8internal9ArenaImpl9NewBufferEmm(ptr noundef nonnull align 8 dereferenceable(40) %0, i64 noundef %1, i64 noundef %2) #7 align 2 personality ptr @__gxx_personality_v0 {
  %4 = alloca %"struct.std::pair", align 8
  %5 = alloca ptr, align 8
  %6 = alloca i64, align 8
  %7 = alloca i64, align 8
  %8 = alloca i64, align 8
  %9 = alloca i64, align 8
  %10 = alloca i64, align 8
  %11 = alloca %"class.google::protobuf::internal::LogMessage", align 8
  %12 = alloca i1, align 1
  %13 = alloca i1, align 1
  %14 = alloca ptr, align 8
  %15 = alloca i32, align 4
  %16 = alloca %"class.google::protobuf::internal::LogFinisher", align 1
  %17 = alloca i64, align 8
  %18 = alloca ptr, align 8
  store ptr %0, ptr %5, align 8, !tbaa !9
  store i64 %1, ptr %6, align 8, !tbaa !7
  store i64 %2, ptr %7, align 8, !tbaa !7
  %19 = load ptr, ptr %5, align 8
  call void @llvm.lifetime.start.p0(i64 8, ptr %8) #3
  %20 = load i64, ptr %6, align 8, !tbaa !7
  %21 = icmp ne i64 %20, -1
  br i1 %21, label %22, label %38

22:                                               ; preds = %3
  call void @llvm.lifetime.start.p0(i64 8, ptr %9) #3
  %23 = getelementptr inbounds nuw %"class.google::protobuf::internal::ArenaImpl", ptr %19, i32 0, i32 4
  %24 = load ptr, ptr %23, align 8, !tbaa !13
  %25 = icmp ne ptr %24, null
  br i1 %25, label %26, label %31

26:                                               ; preds = %22
  %27 = getelementptr inbounds nuw %"class.google::protobuf::internal::ArenaImpl", ptr %19, i32 0, i32 4
  %28 = load ptr, ptr %27, align 8, !tbaa !13
  %29 = getelementptr inbounds nuw %"struct.google::protobuf::internal::ArenaImpl::Options", ptr %28, i32 0, i32 1
  %30 = load i64, ptr %29, align 8, !tbaa !44
  br label %32

31:                                               ; preds = %22
  br label %32

32:                                               ; preds = %31, %26
  %33 = phi i64 [ %30, %26 ], [ 8192, %31 ]
  store i64 %33, ptr %9, align 8, !tbaa !7
  call void @llvm.lifetime.start.p0(i64 8, ptr %10) #3
  %34 = load i64, ptr %6, align 8, !tbaa !7
  %35 = mul i64 2, %34
  store i64 %35, ptr %10, align 8, !tbaa !7
  %36 = call noundef nonnull align 8 dereferenceable(8) ptr @_ZSt3minImERKT_S2_S2_(ptr noundef nonnull align 8 dereferenceable(8) %10, ptr noundef nonnull align 8 dereferenceable(8) %9)
  %37 = load i64, ptr %36, align 8, !tbaa !7
  store i64 %37, ptr %8, align 8, !tbaa !7
  call void @llvm.lifetime.end.p0(i64 8, ptr %10) #3
  call void @llvm.lifetime.end.p0(i64 8, ptr %9) #3
  br label %50

38:                                               ; preds = %3
  %39 = getelementptr inbounds nuw %"class.google::protobuf::internal::ArenaImpl", ptr %19, i32 0, i32 4
  %40 = load ptr, ptr %39, align 8, !tbaa !13
  %41 = icmp ne ptr %40, null
  br i1 %41, label %42, label %47

42:                                               ; preds = %38
  %43 = getelementptr inbounds nuw %"class.google::protobuf::internal::ArenaImpl", ptr %19, i32 0, i32 4
  %44 = load ptr, ptr %43, align 8, !tbaa !13
  %45 = getelementptr inbounds nuw %"struct.google::protobuf::internal::ArenaImpl::Options", ptr %44, i32 0, i32 0
  %46 = load i64, ptr %45, align 8, !tbaa !41
  br label %48

47:                                               ; preds = %38
  br label %48

48:                                               ; preds = %47, %42
  %49 = phi i64 [ %46, %42 ], [ 256, %47 ]
  store i64 %49, ptr %8, align 8, !tbaa !7
  br label %50

50:                                               ; preds = %48, %32
  %51 = load i64, ptr %7, align 8, !tbaa !7
  %52 = call noundef i64 @_ZNSt14numeric_limitsImE3maxEv() #3
  %53 = sub i64 %52, 24
  %54 = icmp ule i64 %51, %53
  store i1 false, ptr %12, align 1
  store i1 false, ptr %13, align 1
  call void @llvm.lifetime.start.p0(i64 1, ptr %16) #3
  br i1 %54, label %55, label %56

55:                                               ; preds = %50
  br label %60

56:                                               ; preds = %50
  call void @llvm.lifetime.start.p0(i64 56, ptr %11) #3
  store i1 true, ptr %12, align 1
  call void @_ZN6google8protobuf8internal10LogMessageC1ENS0_8LogLevelEPKci(ptr noundef nonnull align 8 dereferenceable(56) %11, i32 noundef 3, ptr noundef @.str, i32 noundef 245)
  store i1 true, ptr %13, align 1
  %57 = invoke noundef nonnull align 8 dereferenceable(56) ptr @_ZN6google8protobuf8internal10LogMessagelsEPKc(ptr noundef nonnull align 8 dereferenceable(56) %11, ptr noundef @.str.3)
          to label %58 unwind label %90

58:                                               ; preds = %56
  invoke void @_ZN6google8protobuf8internal11LogFinisheraSERNS1_10LogMessageE(ptr noundef nonnull align 1 dereferenceable(1) %16, ptr noundef nonnull align 8 dereferenceable(56) %57)
          to label %59 unwind label %94

59:                                               ; preds = %58
  br label %60

60:                                               ; preds = %59, %55
  call void @llvm.lifetime.end.p0(i64 1, ptr %16) #3
  %61 = load i1, ptr %13, align 1
  br i1 %61, label %62, label %63

62:                                               ; preds = %60
  call void @_ZN6google8protobuf8internal10LogMessageD1Ev(ptr noundef nonnull align 8 dereferenceable(56) %11) #3
  br label %63

63:                                               ; preds = %62, %60
  %64 = load i1, ptr %12, align 1
  br i1 %64, label %65, label %66

65:                                               ; preds = %63
  call void @llvm.lifetime.end.p0(i64 56, ptr %11) #3
  br label %66

66:                                               ; preds = %65, %63
  call void @llvm.lifetime.start.p0(i64 8, ptr %17) #3
  %67 = load i64, ptr %7, align 8, !tbaa !7
  %68 = add i64 24, %67
  store i64 %68, ptr %17, align 8, !tbaa !7
  %69 = call noundef nonnull align 8 dereferenceable(8) ptr @_ZSt3maxImERKT_S2_S2_(ptr noundef nonnull align 8 dereferenceable(8) %8, ptr noundef nonnull align 8 dereferenceable(8) %17)
  %70 = load i64, ptr %69, align 8, !tbaa !7
  store i64 %70, ptr %8, align 8, !tbaa !7
  call void @llvm.lifetime.end.p0(i64 8, ptr %17) #3
  call void @llvm.lifetime.start.p0(i64 8, ptr %18) #3
  %71 = getelementptr inbounds nuw %"class.google::protobuf::internal::ArenaImpl", ptr %19, i32 0, i32 4
  %72 = load ptr, ptr %71, align 8, !tbaa !13
  %73 = icmp ne ptr %72, null
  br i1 %73, label %74, label %81

74:                                               ; preds = %66
  %75 = getelementptr inbounds nuw %"class.google::protobuf::internal::ArenaImpl", ptr %19, i32 0, i32 4
  %76 = load ptr, ptr %75, align 8, !tbaa !13
  %77 = getelementptr inbounds nuw %"struct.google::protobuf::internal::ArenaImpl::Options", ptr %76, i32 0, i32 2
  %78 = load ptr, ptr %77, align 8, !tbaa !45
  %79 = load i64, ptr %8, align 8, !tbaa !7
  %80 = call noundef ptr %78(i64 noundef %79)
  br label %84

81:                                               ; preds = %66
  %82 = load i64, ptr %8, align 8, !tbaa !7
  %83 = call noalias noundef nonnull ptr @_Znwm(i64 noundef %82) #19
  br label %84

84:                                               ; preds = %81, %74
  %85 = phi ptr [ %80, %74 ], [ %83, %81 ]
  store ptr %85, ptr %18, align 8, !tbaa !3
  %86 = getelementptr inbounds nuw %"class.google::protobuf::internal::ArenaImpl", ptr %19, i32 0, i32 2
  %87 = load i64, ptr %8, align 8, !tbaa !7
  %88 = call noundef i64 @_ZNSt13__atomic_baseImE9fetch_addEmSt12memory_order(ptr noundef nonnull align 8 dereferenceable(8) %86, i64 noundef %87, i32 noundef 0) #3
  call void @_ZNSt4pairIPvmEC2IRS0_RmTnNSt9enable_ifIXaaclsr5_PCCPE22_MoveConstructiblePairIT_T0_EEclsr5_PCCPE30_ImplicitlyMoveConvertiblePairIS6_S7_EEEbE4typeELb1EEEOS6_OS7_(ptr noundef nonnull align 8 dereferenceable(16) %4, ptr noundef nonnull align 8 dereferenceable(8) %18, ptr noundef nonnull align 8 dereferenceable(8) %8)
  call void @llvm.lifetime.end.p0(i64 8, ptr %18) #3
  call void @llvm.lifetime.end.p0(i64 8, ptr %8) #3
  %89 = load { ptr, i64 }, ptr %4, align 8
  ret { ptr, i64 } %89

90:                                               ; preds = %56
  %91 = landingpad { ptr, i32 }
          cleanup
  %92 = extractvalue { ptr, i32 } %91, 0
  store ptr %92, ptr %14, align 8
  %93 = extractvalue { ptr, i32 } %91, 1
  store i32 %93, ptr %15, align 4
  br label %98

94:                                               ; preds = %58
  %95 = landingpad { ptr, i32 }
          cleanup
  %96 = extractvalue { ptr, i32 } %95, 0
  store ptr %96, ptr %14, align 8
  %97 = extractvalue { ptr, i32 } %95, 1
  store i32 %97, ptr %15, align 4
  call void @llvm.lifetime.end.p0(i64 1, ptr %16) #3
  br label %98

98:                                               ; preds = %94, %90
  %99 = load i1, ptr %13, align 1
  br i1 %99, label %100, label %101

100:                                              ; preds = %98
  call void @_ZN6google8protobuf8internal10LogMessageD1Ev(ptr noundef nonnull align 8 dereferenceable(56) %11) #3
  br label %101

101:                                              ; preds = %100, %98
  %102 = load i1, ptr %12, align 1
  br i1 %102, label %103, label %104

103:                                              ; preds = %101
  call void @llvm.lifetime.end.p0(i64 56, ptr %11) #3
  br label %104

104:                                              ; preds = %103, %101
  call void @llvm.lifetime.end.p0(i64 8, ptr %8) #3
  br label %105

105:                                              ; preds = %104
  %106 = load ptr, ptr %14, align 8
  %107 = load i32, ptr %15, align 4
  %108 = insertvalue { ptr, i32 } poison, ptr %106, 0
  %109 = insertvalue { ptr, i32 } %108, i32 %107, 1
  resume { ptr, i32 } %109
}