; Function Attrs: mustprogress uwtable
define { ptr, i64 } @_ZN6google8protobuf8internal9ArenaImpl9NewBufferEmm(ptr noundef nonnull align 8 captures(none) dereferenceable(40) %0, i64 noundef %1, i64 noundef %2) local_unnamed_addr #6 align 2 personality ptr @__gxx_personality_v0 {
  %4 = alloca %"class.google::protobuf::internal::LogMessage", align 8
  %5 = alloca %"class.google::protobuf::internal::LogFinisher", align 1
  %.not = icmp eq i64 %1, -1
  %6 = getelementptr inbounds nuw i8, ptr %0, i64 32
  %7 = load ptr, ptr %6, align 8, !tbaa !3
  %.not17 = icmp eq ptr %7, null
  br i1 %.not, label %15, label %8

8:                                                ; preds = %3
  br i1 %.not17, label %12, label %9

9:                                                ; preds = %8
  %10 = getelementptr inbounds nuw i8, ptr %7, i64 8
  %11 = load i64, ptr %10, align 8, !tbaa !31
  br label %12

12:                                               ; preds = %8, %9
  %13 = phi i64 [ %11, %9 ], [ 8192, %8 ]
  %14 = shl i64 %1, 1
  %.sroa.speculated29 = tail call i64 @llvm.umin.i64(i64 %13, i64 %14)
  br label %18

15:                                               ; preds = %3
  br i1 %.not17, label %18, label %16

16:                                               ; preds = %15
  %17 = load i64, ptr %7, align 8, !tbaa !27
  br label %18

18:                                               ; preds = %16, %15, %12
  %19 = phi ptr [ %7, %12 ], [ %7, %16 ], [ null, %15 ]
  %.0 = phi i64 [ %.sroa.speculated29, %12 ], [ %17, %16 ], [ 256, %15 ]
  %.not19 = icmp ugt i64 %2, -25
  call void @llvm.lifetime.start.p0(i64 1, ptr nonnull %5) #24
  br i1 %.not19, label %20, label %23

20:                                               ; preds = %18
  call void @llvm.lifetime.start.p0(i64 56, ptr nonnull %4) #24
  call void @_ZN6google8protobuf8internal10LogMessageC1ENS0_8LogLevelEPKci(ptr noundef nonnull align 8 dereferenceable(56) %4, i32 noundef 3, ptr noundef nonnull @.str, i32 noundef 245)
  %21 = invoke noundef nonnull align 8 dereferenceable(56) ptr @_ZN6google8protobuf8internal10LogMessagelsEPKc(ptr noundef nonnull align 8 dereferenceable(56) %4, ptr noundef nonnull @.str.3)
          to label %22 unwind label %37

22:                                               ; preds = %20
  invoke void @_ZN6google8protobuf8internal11LogFinisheraSERNS1_10LogMessageE(ptr noundef nonnull align 1 dereferenceable(1) %5, ptr noundef nonnull align 8 dereferenceable(56) %21)
          to label %24 unwind label %39

23:                                               ; preds = %18
  call void @llvm.lifetime.end.p0(i64 1, ptr nonnull %5) #24
  br label %.critedge23

24:                                               ; preds = %22
  call void @llvm.lifetime.end.p0(i64 1, ptr nonnull %5) #24
  call void @_ZN6google8protobuf8internal10LogMessageD1Ev(ptr noundef nonnull align 8 dereferenceable(56) %4) #24
  call void @llvm.lifetime.end.p0(i64 56, ptr nonnull %4) #24
  %.phi.trans.insert = getelementptr inbounds nuw i8, ptr %0, i64 32
  %.pre = load ptr, ptr %.phi.trans.insert, align 8, !tbaa !3
  br label %.critedge23

.critedge23:                                      ; preds = %23, %24
  %25 = phi ptr [ %19, %23 ], [ %.pre, %24 ]
  %26 = add i64 %2, 24
  %.sroa.speculated = call i64 @llvm.umax.i64(i64 %.0, i64 %26)
  %.not21 = icmp eq ptr %25, null
  br i1 %.not21, label %31, label %27

27:                                               ; preds = %.critedge23
  %28 = getelementptr inbounds nuw i8, ptr %25, i64 16
  %29 = load ptr, ptr %28, align 8, !tbaa !32
  %30 = call noundef ptr %29(i64 noundef %.sroa.speculated)
  br label %33

31:                                               ; preds = %.critedge23
  %32 = call noalias noundef nonnull ptr @_Znwm(i64 noundef %.sroa.speculated) #26
  br label %33

33:                                               ; preds = %31, %27
  %34 = phi ptr [ %30, %27 ], [ %32, %31 ]
  %35 = getelementptr inbounds nuw i8, ptr %0, i64 16
  %36 = atomicrmw add ptr %35, i64 %.sroa.speculated monotonic, align 8
  %.fca.0.insert = insertvalue { ptr, i64 } poison, ptr %34, 0
  %.fca.1.insert = insertvalue { ptr, i64 } %.fca.0.insert, i64 %.sroa.speculated, 1
  ret { ptr, i64 } %.fca.1.insert

37:                                               ; preds = %20
  %38 = landingpad { ptr, i32 }
          cleanup
  br label %41

39:                                               ; preds = %22
  %40 = landingpad { ptr, i32 }
          cleanup
  call void @llvm.lifetime.end.p0(i64 1, ptr nonnull %5) #24
  br label %41

41:                                               ; preds = %37, %39
  %.pn = phi { ptr, i32 } [ %40, %39 ], [ %38, %37 ]
  call void @_ZN6google8protobuf8internal10LogMessageD1Ev(ptr noundef nonnull align 8 dereferenceable(56) %4) #24
  call void @llvm.lifetime.end.p0(i64 56, ptr nonnull %4) #24
  resume { ptr, i32 } %.pn
}